target datalayout = "e-m:e-p270:32:32-p271:32:32-p272:64:64-i64:64-i128:128-f80:128-n8:16:32:64-S128"
target triple = "x86_64-pc-linux-gnu"

%struct.v8dwt_local = type { ptr, i32, i32, i32, i32, i32, i32, i32 }
%union.opj_v8_t = type { [8 x float] }
%struct.opj_dwt97_decode_v_job_t = type { %struct.v8dwt_local, i32, i32, ptr, i32 }

; Function Attrs: inlinehint nounwind uwtable
define internal void @opj_v8dwt_interleave_v(ptr noalias noundef %0, ptr noalias noundef %1, i32 noundef %2, i32 noundef %3) #1 {
  %5 = alloca ptr, align 8
  %6 = alloca ptr, align 8
  %7 = alloca i32, align 4
  %8 = alloca i32, align 4
  %9 = alloca ptr, align 8
  %10 = alloca i32, align 4
  store ptr %0, ptr %5, align 8, !tbaa !249
  store ptr %1, ptr %6, align 8, !tbaa !112
  store i32 %2, ptr %7, align 4, !tbaa !24
  store i32 %3, ptr %8, align 4, !tbaa !24
  call void @llvm.lifetime.start.p0(i64 8, ptr %9) #9
  %11 = load ptr, ptr %5, align 8, !tbaa !249
  %12 = getelementptr inbounds nuw %struct.v8dwt_local, ptr %11, i32 0, i32 0
  %13 = load ptr, ptr %12, align 8, !tbaa !126
  %14 = load ptr, ptr %5, align 8, !tbaa !249
  %15 = getelementptr inbounds nuw %struct.v8dwt_local, ptr %14, i32 0, i32 3
  %16 = load i32, ptr %15, align 8, !tbaa !130
  %17 = sext i32 %16 to i64
  %18 = getelementptr inbounds %union.opj_v8_t, ptr %13, i64 %17
  store ptr %18, ptr %9, align 8, !tbaa !20
  call void @llvm.lifetime.start.p0(i64 4, ptr %10) #9
  %19 = load ptr, ptr %5, align 8, !tbaa !249
  %20 = getelementptr inbounds nuw %struct.v8dwt_local, ptr %19, i32 0, i32 4
  %21 = load i32, ptr %20, align 4, !tbaa !131
  store i32 %21, ptr %10, align 4, !tbaa !24
  br label %22

22:                                               ; preds = %44, %4
  %23 = load i32, ptr %10, align 4, !tbaa !24
  %24 = load ptr, ptr %5, align 8, !tbaa !249
  %25 = getelementptr inbounds nuw %struct.v8dwt_local, ptr %24, i32 0, i32 5
  %26 = load i32, ptr %25, align 8, !tbaa !132
  %27 = icmp ult i32 %23, %26
  br i1 %27, label %28, label %47

28:                                               ; preds = %22
  %29 = load ptr, ptr %9, align 8, !tbaa !20
  %30 = load i32, ptr %10, align 4, !tbaa !24
  %31 = mul i32 %30, 2
  %32 = zext i32 %31 to i64
  %33 = getelementptr inbounds nuw %union.opj_v8_t, ptr %29, i64 %32
  %34 = load ptr, ptr %6, align 8, !tbaa !112
  %35 = load i32, ptr %10, align 4, !tbaa !24
  %36 = zext i32 %35 to i64
  %37 = load i32, ptr %7, align 4, !tbaa !24
  %38 = zext i32 %37 to i64
  %39 = mul i64 %36, %38
  %40 = getelementptr inbounds nuw float, ptr %34, i64 %39
  %41 = load i32, ptr %8, align 4, !tbaa !24
  %42 = zext i32 %41 to i64
  %43 = mul i64 %42, 4
  call void @llvm.memcpy.p0.p0.i64(ptr align 4 %33, ptr align 4 %40, i64 %43, i1 false)
  br label %44

44:                                               ; preds = %28
  %45 = load i32, ptr %10, align 4, !tbaa !24
  %46 = add i32 %45, 1
  store i32 %46, ptr %10, align 4, !tbaa !24
  br label %22, !llvm.loop !257

47:                                               ; preds = %22
  %48 = load ptr, ptr %5, align 8, !tbaa !249
  %49 = getelementptr inbounds nuw %struct.v8dwt_local, ptr %48, i32 0, i32 2
  %50 = load i32, ptr %49, align 4, !tbaa !128
  %51 = zext i32 %50 to i64
  %52 = load i32, ptr %7, align 4, !tbaa !24
  %53 = zext i32 %52 to i64
  %54 = mul i64 %51, %53
  %55 = load ptr, ptr %6, align 8, !tbaa !112
  %56 = getelementptr inbounds nuw float, ptr %55, i64 %54
  store ptr %56, ptr %6, align 8, !tbaa !112
  %57 = load ptr, ptr %5, align 8, !tbaa !249
  %58 = getelementptr inbounds nuw %struct.v8dwt_local, ptr %57, i32 0, i32 0
  %59 = load ptr, ptr %58, align 8, !tbaa !126
  %60 = getelementptr inbounds %union.opj_v8_t, ptr %59, i64 1
  %61 = load ptr, ptr %5, align 8, !tbaa !249
  %62 = getelementptr inbounds nuw %struct.v8dwt_local, ptr %61, i32 0, i32 3
  %63 = load i32, ptr %62, align 8, !tbaa !130
  %64 = sext i32 %63 to i64
  %65 = sub i64 0, %64
  %66 = getelementptr inbounds %union.opj_v8_t, ptr %60, i64 %65
  store ptr %66, ptr %9, align 8, !tbaa !20
  %67 = load ptr, ptr %5, align 8, !tbaa !249
  %68 = getelementptr inbounds nuw %struct.v8dwt_local, ptr %67, i32 0, i32 6
  %69 = load i32, ptr %68, align 4, !tbaa !133
  store i32 %69, ptr %10, align 4, !tbaa !24
  br label %70

70:                                               ; preds = %92, %47
  %71 = load i32, ptr %10, align 4, !tbaa !24
  %72 = load ptr, ptr %5, align 8, !tbaa !249
  %73 = getelementptr inbounds nuw %struct.v8dwt_local, ptr %72, i32 0, i32 7
  %74 = load i32, ptr %73, align 8, !tbaa !134
  %75 = icmp ult i32 %71, %74
  br i1 %75, label %76, label %95

76:                                               ; preds = %70
  %77 = load ptr, ptr %9, align 8, !tbaa !20
  %78 = load i32, ptr %10, align 4, !tbaa !24
  %79 = mul i32 %78, 2
  %80 = zext i32 %79 to i64
  %81 = getelementptr inbounds nuw %union.opj_v8_t, ptr %77, i64 %80
  %82 = load ptr, ptr %6, align 8, !tbaa !112
  %83 = load i32, ptr %10, align 4, !tbaa !24
  %84 = zext i32 %83 to i64
  %85 = load i32, ptr %7, align 4, !tbaa !24
  %86 = zext i32 %85 to i64
  %87 = mul i64 %84, %86
  %88 = getelementptr inbounds nuw float, ptr %82, i64 %87
  %89 = load i32, ptr %8, align 4, !tbaa !24
  %90 = zext i32 %89 to i64
  %91 = mul i64 %90, 4
  call void @llvm.memcpy.p0.p0.i64(ptr align 4 %81, ptr align 4 %88, i64 %91, i1 false)
  br label %92

92:                                               ; preds = %76
  %93 = load i32, ptr %10, align 4, !tbaa !24
  %94 = add i32 %93, 1
  store i32 %94, ptr %10, align 4, !tbaa !24
  br label %70, !llvm.loop !258

95:                                               ; preds = %70
  call void @llvm.lifetime.end.p0(i64 4, ptr %10) #9
  call void @llvm.lifetime.end.p0(i64 8, ptr %9) #9
  ret void
}

; Function Attrs: nounwind uwtable
define internal void @opj_dwt97_decode_v_func(ptr noundef %0, ptr noundef %1) #0 {
  %3 = alloca ptr, align 8
  %4 = alloca ptr, align 8
  %5 = alloca i32, align 4
  %6 = alloca ptr, align 8
  %7 = alloca ptr, align 8
  %8 = alloca i32, align 4
  store ptr %0, ptr %3, align 8, !tbaa !20
  store ptr %1, ptr %4, align 8, !tbaa !164
  call void @llvm.lifetime.start.p0(i64 4, ptr %5) #9
  call void @llvm.lifetime.start.p0(i64 8, ptr %6) #9
  call void @llvm.lifetime.start.p0(i64 8, ptr %7) #9
  %9 = load ptr, ptr %3, align 8, !tbaa !20
  store ptr %9, ptr %6, align 8, !tbaa !20
  %10 = load ptr, ptr %6, align 8, !tbaa !20
  %11 = getelementptr inbounds nuw %struct.opj_dwt97_decode_v_job_t, ptr %10, i32 0, i32 3
  %12 = load ptr, ptr %11, align 8, !tbaa !150
  store ptr %12, ptr %7, align 8, !tbaa !112
  store i32 0, ptr %5, align 4, !tbaa !24
  br label %13

13:                                               ; preds = %58, %2
  %14 = load i32, ptr %5, align 4, !tbaa !24
  %15 = add i32 %14, 8
  %16 = load ptr, ptr %6, align 8, !tbaa !20
  %17 = getelementptr inbounds nuw %struct.opj_dwt97_decode_v_job_t, ptr %16, i32 0, i32 4
  %18 = load i32, ptr %17, align 8, !tbaa !151
  %19 = icmp ule i32 %15, %18
  br i1 %19, label %20, label %61

20:                                               ; preds = %13
  call void @llvm.lifetime.start.p0(i64 4, ptr %8) #9
  %21 = load ptr, ptr %6, align 8, !tbaa !20
  %22 = getelementptr inbounds nuw %struct.opj_dwt97_decode_v_job_t, ptr %21, i32 0, i32 0
  %23 = load ptr, ptr %7, align 8, !tbaa !112
  %24 = load ptr, ptr %6, align 8, !tbaa !20
  %25 = getelementptr inbounds nuw %struct.opj_dwt97_decode_v_job_t, ptr %24, i32 0, i32 2
  %26 = load i32, ptr %25, align 4, !tbaa !149
  call void @opj_v8dwt_interleave_v(ptr noundef %22, ptr noundef %23, i32 noundef %26, i32 noundef 8)
  %27 = load ptr, ptr %6, align 8, !tbaa !20
  %28 = getelementptr inbounds nuw %struct.opj_dwt97_decode_v_job_t, ptr %27, i32 0, i32 0
  call void @opj_v8dwt_decode(ptr noundef %28)
  store i32 0, ptr %8, align 4, !tbaa !24
  br label %29

29:                                               ; preds = %52, %20
  %30 = load i32, ptr %8, align 4, !tbaa !24
  %31 = load ptr, ptr %6, align 8, !tbaa !20
  %32 = getelementptr inbounds nuw %struct.opj_dwt97_decode_v_job_t, ptr %31, i32 0, i32 1
  %33 = load i32, ptr %32, align 8, !tbaa !148
  %34 = icmp ult i32 %30, %33
  br i1 %34, label %35, label %55

35:                                               ; preds = %29
  %36 = load ptr, ptr %7, align 8, !tbaa !112
  %37 = load i32, ptr %8, align 4, !tbaa !24
  %38 = zext i32 %37 to i64
  %39 = load ptr, ptr %6, align 8, !tbaa !20
  %40 = getelementptr inbounds nuw %struct.opj_dwt97_decode_v_job_t, ptr %39, i32 0, i32 2
  %41 = load i32, ptr %40, align 4, !tbaa !149
  %42 = zext i32 %41 to i64
  %43 = mul i64 %38, %42
  %44 = getelementptr inbounds nuw float, ptr %36, i64 %43
  %45 = load ptr, ptr %6, align 8, !tbaa !20
  %46 = getelementptr inbounds nuw %struct.opj_dwt97_decode_v_job_t, ptr %45, i32 0, i32 0
  %47 = getelementptr inbounds nuw %struct.v8dwt_local, ptr %46, i32 0, i32 0
  %48 = load ptr, ptr %47, align 8, !tbaa !139
  %49 = load i32, ptr %8, align 4, !tbaa !24
  %50 = zext i32 %49 to i64
  %51 = getelementptr inbounds nuw %union.opj_v8_t, ptr %48, i64 %50
  call void @llvm.memcpy.p0.p0.i64(ptr align 4 %44, ptr align 4 %51, i64 32, i1 false)
  br label %52

52:                                               ; preds = %35
  %53 = load i32, ptr %8, align 4, !tbaa !24
  %54 = add i32 %53, 1
  store i32 %54, ptr %8, align 4, !tbaa !24
  br label %29, !llvm.loop !259

55:                                               ; preds = %29
  %56 = load ptr, ptr %7, align 8, !tbaa !112
  %57 = getelementptr inbounds float, ptr %56, i64 8
  store ptr %57, ptr %7, align 8, !tbaa !112
  call void @llvm.lifetime.end.p0(i64 4, ptr %8) #9
  br label %58

58:                                               ; preds = %55
  %59 = load i32, ptr %5, align 4, !tbaa !24
  %60 = add i32 %59, 8
  store i32 %60, ptr %5, align 4, !tbaa !24
  br label %13, !llvm.loop !260

61:                                               ; preds = %13
  %62 = load ptr, ptr %6, align 8, !tbaa !20
  %63 = getelementptr inbounds nuw %struct.opj_dwt97_decode_v_job_t, ptr %62, i32 0, i32 0
  %64 = getelementptr inbounds nuw %struct.v8dwt_local, ptr %63, i32 0, i32 0
  %65 = load ptr, ptr %64, align 8, !tbaa !139
  call void @opj_aligned_free(ptr noundef %65)
  %66 = load ptr, ptr %6, align 8, !tbaa !20
  call void @opj_free(ptr noundef %66)
  call void @llvm.lifetime.end.p0(i64 8, ptr %7) #9
  call void @llvm.lifetime.end.p0(i64 8, ptr %6) #9
  call void @llvm.lifetime.end.p0(i64 4, ptr %5) #9
  ret void
}