; Function Attrs: nounwind uwtable
define internal void @opj_dwt97_decode_v_func(ptr noundef %0, ptr readnone captures(none) %1) #0 {
  %3 = getelementptr inbounds nuw i8, ptr %0, i64 56
  %4 = load i32, ptr %3, align 8, !tbaa !224
  %.not23 = icmp ult i32 %4, 8
  br i1 %.not23, label %._crit_edge27, label %.lr.ph26

.lr.ph26:                                         ; preds = %2
  %5 = getelementptr inbounds nuw i8, ptr %0, i64 48
  %6 = load ptr, ptr %5, align 8, !tbaa !223
  %7 = getelementptr inbounds nuw i8, ptr %0, i64 44
  %8 = getelementptr inbounds nuw i8, ptr %0, i64 16
  %9 = getelementptr inbounds nuw i8, ptr %0, i64 20
  %10 = getelementptr inbounds nuw i8, ptr %0, i64 24
  %11 = getelementptr inbounds nuw i8, ptr %0, i64 12
  %12 = getelementptr inbounds nuw i8, ptr %0, i64 28
  %13 = getelementptr inbounds nuw i8, ptr %0, i64 32
  %14 = getelementptr inbounds nuw i8, ptr %0, i64 40
  br label %15

15:                                               ; preds = %.lr.ph26, %._crit_edge
  %16 = phi i32 [ 8, %.lr.ph26 ], [ %61, %._crit_edge ]
  %.01924 = phi ptr [ %6, %.lr.ph26 ], [ %60, %._crit_edge ]
  %17 = load i32, ptr %7, align 4, !tbaa !222
  tail call void @llvm.experimental.noalias.scope.decl(metadata !303)
  %18 = load ptr, ptr %0, align 8, !tbaa !189, !alias.scope !303, !noalias !306
  %19 = load i32, ptr %8, align 8, !tbaa !193, !alias.scope !303, !noalias !306
  %20 = sext i32 %19 to i64
  %21 = getelementptr inbounds %union.opj_v8_t, ptr %18, i64 %20
  %22 = load i32, ptr %9, align 4, !tbaa !194, !alias.scope !303, !noalias !306
  %23 = load i32, ptr %10, align 8, !tbaa !195, !alias.scope !303, !noalias !306
  %24 = icmp ult i32 %22, %23
  %25 = zext i32 %17 to i64
  br i1 %24, label %.lr.ph.i, label %._crit_edge.i

.lr.ph.i:                                         ; preds = %15
  %26 = zext i32 %22 to i64
  %wide.trip.count.i = zext i32 %23 to i64
  br label %27

27:                                               ; preds = %27, %.lr.ph.i
  %indvars.iv.i = phi i64 [ %26, %.lr.ph.i ], [ %indvars.iv.next.i, %27 ]
  %28 = shl nuw i64 %indvars.iv.i, 1
  %29 = and i64 %28, 4294967294
  %30 = getelementptr inbounds nuw %union.opj_v8_t, ptr %21, i64 %29
  %31 = mul nuw i64 %indvars.iv.i, %25
  %32 = getelementptr inbounds nuw float, ptr %.01924, i64 %31
  tail call void @llvm.memcpy.p0.p0.i64(ptr noundef nonnull align 4 dereferenceable(32) %30, ptr noundef nonnull readonly align 4 dereferenceable(32) %32, i64 32, i1 false), !noalias !303
  %indvars.iv.next.i = add nuw nsw i64 %indvars.iv.i, 1
  %exitcond.not.i = icmp eq i64 %indvars.iv.next.i, %wide.trip.count.i
  br i1 %exitcond.not.i, label %._crit_edge.i, label %27, !llvm.loop !234

._crit_edge.i:                                    ; preds = %27, %15
  %33 = load i32, ptr %11, align 4, !tbaa !191, !alias.scope !303, !noalias !306
  %34 = zext i32 %33 to i64
  %35 = mul nuw i64 %34, %25
  %36 = getelementptr inbounds nuw float, ptr %.01924, i64 %35
  %37 = getelementptr inbounds nuw i8, ptr %18, i64 32
  %38 = sub nsw i64 0, %20
  %39 = getelementptr inbounds %union.opj_v8_t, ptr %37, i64 %38
  %40 = load i32, ptr %12, align 4, !tbaa !196, !alias.scope !303, !noalias !306
  %41 = load i32, ptr %13, align 8, !tbaa !197, !alias.scope !303, !noalias !306
  %42 = icmp ult i32 %40, %41
  br i1 %42, label %.lr.ph29.i, label %opj_v8dwt_interleave_v.exit

.lr.ph29.i:                                       ; preds = %._crit_edge.i
  %43 = zext i32 %40 to i64
  %wide.trip.count35.i = zext i32 %41 to i64
  br label %44

44:                                               ; preds = %44, %.lr.ph29.i
  %indvars.iv32.i = phi i64 [ %43, %.lr.ph29.i ], [ %indvars.iv.next33.i, %44 ]
  %45 = shl nuw i64 %indvars.iv32.i, 1
  %46 = and i64 %45, 4294967294
  %47 = getelementptr inbounds nuw %union.opj_v8_t, ptr %39, i64 %46
  %48 = mul nuw i64 %indvars.iv32.i, %25
  %49 = getelementptr inbounds nuw float, ptr %36, i64 %48
  tail call void @llvm.memcpy.p0.p0.i64(ptr noundef nonnull align 4 dereferenceable(32) %47, ptr noundef nonnull readonly align 4 dereferenceable(32) %49, i64 32, i1 false), !noalias !303
  %indvars.iv.next33.i = add nuw nsw i64 %indvars.iv32.i, 1
  %exitcond36.not.i = icmp eq i64 %indvars.iv.next33.i, %wide.trip.count35.i
  br i1 %exitcond36.not.i, label %opj_v8dwt_interleave_v.exit, label %44, !llvm.loop !235

opj_v8dwt_interleave_v.exit:                      ; preds = %44, %._crit_edge.i
  tail call fastcc void @opj_v8dwt_decode(ptr noundef nonnull %0)
  %50 = load i32, ptr %14, align 8, !tbaa !221
  %.not28 = icmp eq i32 %50, 0
  br i1 %.not28, label %._crit_edge, label %.lr.ph

.lr.ph:                                           ; preds = %opj_v8dwt_interleave_v.exit, %.lr.ph
  %indvars.iv = phi i64 [ %indvars.iv.next, %.lr.ph ], [ 0, %opj_v8dwt_interleave_v.exit ]
  %51 = load i32, ptr %7, align 4, !tbaa !222
  %52 = zext i32 %51 to i64
  %53 = mul nuw i64 %indvars.iv, %52
  %54 = getelementptr inbounds nuw float, ptr %.01924, i64 %53
  %55 = load ptr, ptr %0, align 8, !tbaa !211
  %56 = getelementptr inbounds nuw %union.opj_v8_t, ptr %55, i64 %indvars.iv
  tail call void @llvm.memcpy.p0.p0.i64(ptr noundef nonnull align 4 dereferenceable(32) %54, ptr noundef nonnull align 4 dereferenceable(32) %56, i64 32, i1 false)
  %indvars.iv.next = add nuw nsw i64 %indvars.iv, 1
  %57 = load i32, ptr %14, align 8, !tbaa !221
  %58 = zext i32 %57 to i64
  %59 = icmp samesign ult i64 %indvars.iv.next, %58
  br i1 %59, label %.lr.ph, label %._crit_edge, !llvm.loop !308

._crit_edge:                                      ; preds = %.lr.ph, %opj_v8dwt_interleave_v.exit
  %60 = getelementptr inbounds nuw i8, ptr %.01924, i64 32
  %61 = add i32 %16, 8
  %62 = load i32, ptr %3, align 8, !tbaa !224
  %.not = icmp ugt i32 %61, %62
  br i1 %.not, label %._crit_edge27, label %15, !llvm.loop !309

._crit_edge27:                                    ; preds = %._crit_edge, %2
  %63 = load ptr, ptr %0, align 8, !tbaa !211
  tail call void @opj_aligned_free(ptr noundef %63) #16
  tail call void @opj_free(ptr noundef nonnull %0) #16
  ret void
}